target datalayout = "e-m:e-p270:32:32-p271:32:32-p272:64:64-i64:64-i128:128-f80:128-n8:16:32:64-S128"
target triple = "x86_64-pc-linux-gnu"

%struct.ForEachState = type { ptr, i32 }
%union.ListCell = type { ptr }
%struct.List = type { i32, i32, i32, ptr, [0 x %union.ListCell] }
%struct.EquivalenceClass = type { i32, ptr, i32, ptr, ptr, ptr, ptr, i8, i8, i8, i32, i32, i32, ptr }
%struct.EquivalenceMember = type { i32, ptr, ptr, i8, i8, i32, ptr, ptr }

; Function Attrs: nounwind uwtable
define dso_local ptr @find_computable_ec_member(ptr noundef %0, ptr noundef %1, ptr noundef %2, ptr noundef %3, i1 noundef zeroext %4) #0 {
  %6 = alloca ptr, align 8
  %7 = alloca ptr, align 8
  %8 = alloca ptr, align 8
  %9 = alloca ptr, align 8
  %10 = alloca ptr, align 8
  %11 = alloca i8, align 1
  %12 = alloca ptr, align 8
  %13 = alloca ptr, align 8
  %14 = alloca %struct.ForEachState, align 8
  %15 = alloca i32, align 4
  %16 = alloca ptr, align 8
  %17 = alloca ptr, align 8
  %18 = alloca ptr, align 8
  %19 = alloca %struct.ForEachState, align 8
  store ptr %0, ptr %7, align 8
  store ptr %1, ptr %8, align 8
  store ptr %2, ptr %9, align 8
  store ptr %3, ptr %10, align 8
  %20 = zext i1 %4 to i8
  store i8 %20, ptr %11, align 1
  call void @llvm.lifetime.start.p0(i64 8, ptr %12) #6
  call void @llvm.lifetime.start.p0(i64 8, ptr %13) #6
  %21 = load ptr, ptr %9, align 8
  %22 = call ptr @pull_var_clause(ptr noundef %21, i32 noundef 85)
  store ptr %22, ptr %12, align 8
  call void @llvm.lifetime.start.p0(i64 16, ptr %14) #6
  %23 = getelementptr inbounds nuw %struct.ForEachState, ptr %14, i32 0, i32 0
  %24 = load ptr, ptr %8, align 8
  %25 = getelementptr inbounds nuw %struct.EquivalenceClass, ptr %24, i32 0, i32 3
  %26 = load ptr, ptr %25, align 8
  store ptr %26, ptr %23, align 8
  %27 = getelementptr inbounds nuw %struct.ForEachState, ptr %14, i32 0, i32 1
  store i32 0, ptr %27, align 8
  %28 = getelementptr i8, ptr %14, i64 12
  call void @llvm.memset.p0.i64(ptr align 4 %28, i8 0, i64 4, i1 false)
  br label %29

29:                                               ; preds = %141, %5
  %30 = getelementptr inbounds nuw %struct.ForEachState, ptr %14, i32 0, i32 0
  %31 = load ptr, ptr %30, align 8
  %32 = icmp ne ptr %31, null
  br i1 %32, label %33, label %50

33:                                               ; preds = %29
  %34 = getelementptr inbounds nuw %struct.ForEachState, ptr %14, i32 0, i32 1
  %35 = load i32, ptr %34, align 8
  %36 = getelementptr inbounds nuw %struct.ForEachState, ptr %14, i32 0, i32 0
  %37 = load ptr, ptr %36, align 8
  %38 = getelementptr inbounds nuw %struct.List, ptr %37, i32 0, i32 1
  %39 = load i32, ptr %38, align 4
  %40 = icmp slt i32 %35, %39
  br i1 %40, label %41, label %50

41:                                               ; preds = %33
  %42 = getelementptr inbounds nuw %struct.ForEachState, ptr %14, i32 0, i32 0
  %43 = load ptr, ptr %42, align 8
  %44 = getelementptr inbounds nuw %struct.List, ptr %43, i32 0, i32 3
  %45 = load ptr, ptr %44, align 8
  %46 = getelementptr inbounds nuw %struct.ForEachState, ptr %14, i32 0, i32 1
  %47 = load i32, ptr %46, align 8
  %48 = sext i32 %47 to i64
  %49 = getelementptr inbounds %union.ListCell, ptr %45, i64 %48
  store ptr %49, ptr %13, align 8
  br label %51

50:                                               ; preds = %33, %29
  store ptr null, ptr %13, align 8
  br label %51

51:                                               ; preds = %50, %41
  %52 = phi i32 [ 1, %41 ], [ 0, %50 ]
  %53 = icmp ne i32 %52, 0
  br i1 %53, label %55, label %54

54:                                               ; preds = %51
  store i32 2, ptr %15, align 4
  br label %145

55:                                               ; preds = %51
  call void @llvm.lifetime.start.p0(i64 8, ptr %16) #6
  %56 = load ptr, ptr %13, align 8
  %57 = load ptr, ptr %56, align 8
  store ptr %57, ptr %16, align 8
  call void @llvm.lifetime.start.p0(i64 8, ptr %17) #6
  call void @llvm.lifetime.start.p0(i64 8, ptr %18) #6
  %58 = load ptr, ptr %16, align 8
  %59 = getelementptr inbounds nuw %struct.EquivalenceMember, ptr %58, i32 0, i32 3
  %60 = load i8, ptr %59, align 8, !range !4, !noundef !5
  %61 = trunc i8 %60 to i1
  br i1 %61, label %62, label %63

62:                                               ; preds = %55
  store i32 4, ptr %15, align 4
  br label %139

63:                                               ; preds = %55
  %64 = load ptr, ptr %16, align 8
  %65 = getelementptr inbounds nuw %struct.EquivalenceMember, ptr %64, i32 0, i32 4
  %66 = load i8, ptr %65, align 1, !range !4, !noundef !5
  %67 = trunc i8 %66 to i1
  br i1 %67, label %68, label %75

68:                                               ; preds = %63
  %69 = load ptr, ptr %16, align 8
  %70 = getelementptr inbounds nuw %struct.EquivalenceMember, ptr %69, i32 0, i32 2
  %71 = load ptr, ptr %70, align 8
  %72 = load ptr, ptr %10, align 8
  %73 = call zeroext i1 @bms_is_subset(ptr noundef %71, ptr noundef %72)
  br i1 %73, label %75, label %74

74:                                               ; preds = %68
  store i32 4, ptr %15, align 4
  br label %139

75:                                               ; preds = %68, %63
  %76 = load ptr, ptr %16, align 8
  %77 = getelementptr inbounds nuw %struct.EquivalenceMember, ptr %76, i32 0, i32 1
  %78 = load ptr, ptr %77, align 8
  %79 = call ptr @pull_var_clause(ptr noundef %78, i32 noundef 21)
  store ptr %79, ptr %17, align 8
  call void @llvm.lifetime.start.p0(i64 16, ptr %19) #6
  %80 = getelementptr inbounds nuw %struct.ForEachState, ptr %19, i32 0, i32 0
  %81 = load ptr, ptr %17, align 8
  store ptr %81, ptr %80, align 8
  %82 = getelementptr inbounds nuw %struct.ForEachState, ptr %19, i32 0, i32 1
  store i32 0, ptr %82, align 8
  %83 = getelementptr i8, ptr %19, i64 12
  call void @llvm.memset.p0.i64(ptr align 4 %83, i8 0, i64 4, i1 false)
  br label %84

84:                                               ; preds = %117, %75
  %85 = getelementptr inbounds nuw %struct.ForEachState, ptr %19, i32 0, i32 0
  %86 = load ptr, ptr %85, align 8
  %87 = icmp ne ptr %86, null
  br i1 %87, label %88, label %105

88:                                               ; preds = %84
  %89 = getelementptr inbounds nuw %struct.ForEachState, ptr %19, i32 0, i32 1
  %90 = load i32, ptr %89, align 8
  %91 = getelementptr inbounds nuw %struct.ForEachState, ptr %19, i32 0, i32 0
  %92 = load ptr, ptr %91, align 8
  %93 = getelementptr inbounds nuw %struct.List, ptr %92, i32 0, i32 1
  %94 = load i32, ptr %93, align 4
  %95 = icmp slt i32 %90, %94
  br i1 %95, label %96, label %105

96:                                               ; preds = %88
  %97 = getelementptr inbounds nuw %struct.ForEachState, ptr %19, i32 0, i32 0
  %98 = load ptr, ptr %97, align 8
  %99 = getelementptr inbounds nuw %struct.List, ptr %98, i32 0, i32 3
  %100 = load ptr, ptr %99, align 8
  %101 = getelementptr inbounds nuw %struct.ForEachState, ptr %19, i32 0, i32 1
  %102 = load i32, ptr %101, align 8
  %103 = sext i32 %102 to i64
  %104 = getelementptr inbounds %union.ListCell, ptr %100, i64 %103
  store ptr %104, ptr %18, align 8
  br label %106

105:                                              ; preds = %88, %84
  store ptr null, ptr %18, align 8
  br label %106

106:                                              ; preds = %105, %96
  %107 = phi i32 [ 1, %96 ], [ 0, %105 ]
  %108 = icmp ne i32 %107, 0
  br i1 %108, label %110, label %109

109:                                              ; preds = %106
  store i32 5, ptr %15, align 4
  br label %121

110:                                              ; preds = %106
  %111 = load ptr, ptr %12, align 8
  %112 = load ptr, ptr %18, align 8
  %113 = load ptr, ptr %112, align 8
  %114 = call zeroext i1 @list_member(ptr noundef %111, ptr noundef %113)
  br i1 %114, label %116, label %115

115:                                              ; preds = %110
  store i32 5, ptr %15, align 4
  br label %121

116:                                              ; preds = %110
  br label %117

117:                                              ; preds = %116
  %118 = getelementptr inbounds nuw %struct.ForEachState, ptr %19, i32 0, i32 1
  %119 = load i32, ptr %118, align 8
  %120 = add i32 %119, 1
  store i32 %120, ptr %118, align 8
  br label %84, !llvm.loop !15

121:                                              ; preds = %115, %109
  call void @llvm.lifetime.end.p0(i64 16, ptr %19) #6
  br label %122

122:                                              ; preds = %121
  %123 = load ptr, ptr %17, align 8
  call void @list_free(ptr noundef %123)
  %124 = load ptr, ptr %18, align 8
  %125 = icmp ne ptr %124, null
  br i1 %125, label %126, label %127

126:                                              ; preds = %122
  store i32 4, ptr %15, align 4
  br label %139

127:                                              ; preds = %122
  %128 = load i8, ptr %11, align 1, !range !4, !noundef !5
  %129 = trunc i8 %128 to i1
  br i1 %129, label %130, label %137

130:                                              ; preds = %127
  %131 = load ptr, ptr %7, align 8
  %132 = load ptr, ptr %16, align 8
  %133 = getelementptr inbounds nuw %struct.EquivalenceMember, ptr %132, i32 0, i32 1
  %134 = load ptr, ptr %133, align 8
  %135 = call zeroext i1 @is_parallel_safe(ptr noundef %131, ptr noundef %134)
  br i1 %135, label %137, label %136

136:                                              ; preds = %130
  store i32 4, ptr %15, align 4
  br label %139

137:                                              ; preds = %130, %127
  %138 = load ptr, ptr %16, align 8
  store ptr %138, ptr %6, align 8
  store i32 1, ptr %15, align 4
  br label %139

139:                                              ; preds = %137, %136, %126, %74, %62
  call void @llvm.lifetime.end.p0(i64 8, ptr %18) #6
  call void @llvm.lifetime.end.p0(i64 8, ptr %17) #6
  call void @llvm.lifetime.end.p0(i64 8, ptr %16) #6
  %140 = load i32, ptr %15, align 4
  switch i32 %140, label %145 [
    i32 4, label %141
  ]

141:                                              ; preds = %139
  %142 = getelementptr inbounds nuw %struct.ForEachState, ptr %14, i32 0, i32 1
  %143 = load i32, ptr %142, align 8
  %144 = add i32 %143, 1
  store i32 %144, ptr %142, align 8
  br label %29, !llvm.loop !16

145:                                              ; preds = %139, %54
  call void @llvm.lifetime.end.p0(i64 16, ptr %14) #6
  %146 = load i32, ptr %15, align 4
  switch i32 %146, label %148 [
    i32 2, label %147
  ]

147:                                              ; preds = %145
  store ptr null, ptr %6, align 8
  store i32 1, ptr %15, align 4
  br label %148

148:                                              ; preds = %147, %145
  call void @llvm.lifetime.end.p0(i64 8, ptr %13) #6
  call void @llvm.lifetime.end.p0(i64 8, ptr %12) #6
  %149 = load ptr, ptr %6, align 8
  ret ptr %149
}