; Function Attrs: nounwind uwtable
define dso_local ptr @find_computable_ec_member(ptr noundef %0, ptr noundef readonly captures(none) %1, ptr noundef %2, ptr noundef %3, i1 noundef zeroext %4) local_unnamed_addr #0 {
  %6 = tail call ptr @pull_var_clause(ptr noundef %2, i32 noundef 85) #8
  %7 = getelementptr inbounds nuw i8, ptr %1, i64 24
  %8 = load ptr, ptr %7, align 8
  %9 = getelementptr inbounds nuw i8, ptr %8, i64 4
  %.not = icmp eq ptr %8, null
  br i1 %.not, label %.thread58, label %.lr.ph67

.lr.ph67:                                         ; preds = %5
  %10 = getelementptr inbounds nuw i8, ptr %8, i64 16
  %11 = load i32, ptr %9, align 4
  %12 = icmp sgt i32 %11, 0
  br i1 %12, label %.lr.ph79, label %.thread58

.lr.ph79:                                         ; preds = %.lr.ph67, %46
  %indvars.iv7578 = phi i64 [ %indvars.iv.next76, %46 ], [ 0, %.lr.ph67 ]
  %13 = load ptr, ptr %10, align 8
  %14 = getelementptr inbounds nuw %union.ListCell, ptr %13, i64 %indvars.iv7578
  %15 = load ptr, ptr %14, align 8
  %16 = getelementptr inbounds nuw i8, ptr %15, i64 24
  %17 = load i8, ptr %16, align 8, !range !4, !noundef !5
  %18 = trunc nuw i8 %17 to i1
  br i1 %18, label %46, label %19

19:                                               ; preds = %.lr.ph79
  %20 = getelementptr inbounds nuw i8, ptr %15, i64 25
  %21 = load i8, ptr %20, align 1, !range !4, !noundef !5
  %22 = trunc nuw i8 %21 to i1
  br i1 %22, label %23, label %27

23:                                               ; preds = %19
  %24 = getelementptr inbounds nuw i8, ptr %15, i64 16
  %25 = load ptr, ptr %24, align 8
  %26 = tail call zeroext i1 @bms_is_subset(ptr noundef %25, ptr noundef %3) #8
  br i1 %26, label %27, label %46

27:                                               ; preds = %23, %19
  %28 = getelementptr inbounds nuw i8, ptr %15, i64 8
  %29 = load ptr, ptr %28, align 8
  %30 = tail call ptr @pull_var_clause(ptr noundef %29, i32 noundef 21) #8
  %.not38 = icmp eq ptr %30, null
  br i1 %.not38, label %._crit_edge62.split.us, label %.lr.ph

.lr.ph:                                           ; preds = %27
  %31 = getelementptr inbounds nuw i8, ptr %30, i64 4
  %32 = getelementptr inbounds nuw i8, ptr %30, i64 16
  %33 = load i32, ptr %31, align 4
  %34 = icmp sgt i32 %33, 0
  br i1 %34, label %.lr.ph64, label %._crit_edge62.split.us

35:                                               ; preds = %.lr.ph64
  %indvars.iv.next = add nuw nsw i64 %indvars.iv, 1
  %36 = load i32, ptr %31, align 4
  %37 = sext i32 %36 to i64
  %38 = icmp slt i64 %indvars.iv.next, %37
  br i1 %38, label %.lr.ph64, label %._crit_edge62.split.us

.lr.ph64:                                         ; preds = %.lr.ph, %35
  %indvars.iv = phi i64 [ %indvars.iv.next, %35 ], [ 0, %.lr.ph ]
  %39 = load ptr, ptr %32, align 8
  %40 = getelementptr inbounds nuw %union.ListCell, ptr %39, i64 %indvars.iv
  %41 = load ptr, ptr %40, align 8
  %42 = tail call zeroext i1 @list_member(ptr noundef %6, ptr noundef %41) #8
  br i1 %42, label %35, label %.split

.split:                                           ; preds = %.lr.ph64
  tail call void @list_free(ptr noundef nonnull %30) #8
  br label %46

._crit_edge62.split.us:                           ; preds = %35, %.lr.ph, %27
  tail call void @list_free(ptr noundef %30) #8
  br i1 %4, label %43, label %.thread58

43:                                               ; preds = %._crit_edge62.split.us
  %44 = load ptr, ptr %28, align 8
  %45 = tail call zeroext i1 @is_parallel_safe(ptr noundef %0, ptr noundef %44) #8
  br i1 %45, label %.thread58, label %46

46:                                               ; preds = %.lr.ph79, %23, %.split, %43
  %indvars.iv.next76 = add nuw nsw i64 %indvars.iv7578, 1
  %47 = load i32, ptr %9, align 4
  %48 = sext i32 %47 to i64
  %49 = icmp slt i64 %indvars.iv.next76, %48
  br i1 %49, label %.lr.ph79, label %.thread58

.thread58:                                        ; preds = %43, %._crit_edge62.split.us, %46, %.lr.ph67, %5
  %50 = phi ptr [ null, %5 ], [ null, %.lr.ph67 ], [ null, %46 ], [ %15, %._crit_edge62.split.us ], [ %15, %43 ]
  ret ptr %50
}